
context_switch.exe:     file format elf32-sisa
context_switch.exe
architecture: sisa:3, flags 0x00000112:
EXEC_P, HAS_SYMS, D_PAGED
start address 0x0000d000

Program Header:
    LOAD off    0x00000000 vaddr 0x0000cf8c paddr 0x0000cf8c align 2**0
         filesz 0x0000024c memsz 0x0000024c flags r-x
    LOAD off    0x0000024c vaddr 0x0000d500 paddr 0x0000d1d8 align 2**0
         filesz 0x00000026 memsz 0x00000026 flags rw-

Sections:
Idx Name          Size      VMA       LMA       File off  Algn  Flags
  0 .text         000001d8  0000d000  0000d000  00000074  2**0  CONTENTS, ALLOC, LOAD, READONLY, CODE
  1 .data         00000026  0000d500  0000d1d8  0000024c  2**1  CONTENTS, ALLOC, LOAD, DATA
  2 .stab         00000564  00000000  00000000  00000274  2**2  CONTENTS, READONLY, DEBUGGING
  3 .stabstr      0000004e  00000000  00000000  000007d8  2**0  CONTENTS, READONLY, DEBUGGING
SYMBOL TABLE:
0000d000 l    d  .text	00000000 .text
0000d500 l    d  .data	00000000 .data
00000000 l    d  .stab	00000000 .stab
00000000 l    d  .stabstr	00000000 .stabstr
00000000 l    d  *ABS*	00000000 .shstrtab
00000000 l    d  *ABS*	00000000 .symtab
00000000 l    d  *ABS*	00000000 .strtab
0000d500 l       .data	00000000 user1_r0
0000d502 l       .data	00000000 user1_r1
0000d504 l       .data	00000000 user1_r2
0000d506 l       .data	00000000 user1_r3
0000d508 l       .data	00000000 user1_r4
0000d50a l       .data	00000000 user1_r5
0000d50c l       .data	00000000 user1_r6
0000d50e l       .data	00000000 user1_r7
0000d510 l       .data	00000000 user1_pc
0000d512 l       .data	00000000 user2_r0
0000d514 l       .data	00000000 user2_r1
0000d516 l       .data	00000000 user2_r2
0000d518 l       .data	00000000 user2_r3
0000d51a l       .data	00000000 user2_r4
0000d51c l       .data	00000000 user2_r5
0000d51e l       .data	00000000 user2_r6
0000d520 l       .data	00000000 user2_r7
0000d522 l       .data	00000000 user2_pc
0000d524 l       .data	00000000 user_turn
0000d000 l       .text	00000000 RSG_guardar
0000d04a l       .text	00000000 guardar_user2
0000d00a l       .text	00000000 guardar_user1
0000d084 l       .text	00000000 RSG_tractar
0000d092 l       .text	00000000 __int
0000d0a6 l       .text	00000000 __exc
0000d0a8 l       .text	00000000 RSI__interrup_timer
0000d0c0 l       .text	00000000 RSI__interrup_keyboard
0000d0ce l       .text	00000000 RSG_restaurar
0000d14a l       .text	00000000 contextSwitch
0000d110 l       .text	00000000 rest_user2
0000d0d6 l       .text	00000000 rest_user1
0000d196 l       .text	00000000 curr_user2
0000d154 l       .text	00000000 curr_user1
0000d000 g       .text	00000000 __entry_point
0000d1d8 g       .text	00000000 _etext
0000d1fe g       *ABS*	00000000 __data_load_end
0000d1d8 g       *ABS*	00000000 __data_load_start
0000d1d8 g       .text	00000000 __dtors_end
0000d1d8 g       .text	00000000 __ctors_start
0000d1d8 g       .text	00000000 __dtors_start
0000d1d8 g       .text	00000000 __ctors_end
0000d526 g       .data	00000000 _edata
0000d526 g       *ABS*	00000000 _end



context_switch.exe:     file format elf32-sisa

Contents of section .data:
 d500 00000000 00000000 00000000 00000000  ................
 d510 00000000 00000000 00000000 00000000  ................
 d520 00000040 0000                        ...@..          

context_switch.exe:     file format elf32-sisa

Disassembly of section .text:

0000d000 <__entry_point>:
    d000:	f9f0 	wrs	s4, r7
    d002:	5e24 	movi	r7, 36
    d004:	5fd5 	movhi	r7, -43
    d006:	3fc0 	ld	r7, 0(r7)
    d008:	6f20 	bnz	r7, 66

0000d00a <guardar_user1>:
    d00a:	5e00 	movi	r7, 0
    d00c:	5fd5 	movhi	r7, -43
    d00e:	41c0 	st	0(r7), r0
    d010:	5e02 	movi	r7, 2
    d012:	5fd5 	movhi	r7, -43
    d014:	43c0 	st	0(r7), r1
    d016:	5e04 	movi	r7, 4
    d018:	5fd5 	movhi	r7, -43
    d01a:	45c0 	st	0(r7), r2
    d01c:	5e06 	movi	r7, 6
    d01e:	5fd5 	movhi	r7, -43
    d020:	47c0 	st	0(r7), r3
    d022:	5e08 	movi	r7, 8
    d024:	5fd5 	movhi	r7, -43
    d026:	49c0 	st	0(r7), r4
    d028:	5e0a 	movi	r7, 10
    d02a:	5fd5 	movhi	r7, -43
    d02c:	4bc0 	st	0(r7), r5
    d02e:	5e0c 	movi	r7, 12
    d030:	5fd5 	movhi	r7, -43
    d032:	4dc0 	st	0(r7), r6
    d034:	ff2c 	rds	r7, s4
    d036:	5c0e 	movi	r6, 14
    d038:	5dd5 	movhi	r6, -43
    d03a:	4f80 	st	0(r6), r7
    d03c:	fe6c 	rds	r7, s1
    d03e:	5c10 	movi	r6, 16
    d040:	5dd5 	movhi	r6, -43
    d042:	4f80 	st	0(r6), r7
    d044:	5684 	movi	r3, -124
    d046:	57d0 	movhi	r3, -48
    d048:	a0c3 	jmp	r3

0000d04a <guardar_user2>:
    d04a:	5e12 	movi	r7, 18
    d04c:	5fd5 	movhi	r7, -43
    d04e:	41c0 	st	0(r7), r0
    d050:	5e14 	movi	r7, 20
    d052:	5fd5 	movhi	r7, -43
    d054:	43c0 	st	0(r7), r1
    d056:	5e16 	movi	r7, 22
    d058:	5fd5 	movhi	r7, -43
    d05a:	45c0 	st	0(r7), r2
    d05c:	5e18 	movi	r7, 24
    d05e:	5fd5 	movhi	r7, -43
    d060:	47c0 	st	0(r7), r3
    d062:	5e1a 	movi	r7, 26
    d064:	5fd5 	movhi	r7, -43
    d066:	49c0 	st	0(r7), r4
    d068:	5e1c 	movi	r7, 28
    d06a:	5fd5 	movhi	r7, -43
    d06c:	4bc0 	st	0(r7), r5
    d06e:	5e1e 	movi	r7, 30
    d070:	5fd5 	movhi	r7, -43
    d072:	4dc0 	st	0(r7), r6
    d074:	ff2c 	rds	r7, s4
    d076:	5c20 	movi	r6, 32
    d078:	5dd5 	movhi	r6, -43
    d07a:	4f80 	st	0(r6), r7
    d07c:	fe6c 	rds	r7, s1
    d07e:	5c22 	movi	r6, 34
    d080:	5dd5 	movhi	r6, -43
    d082:	4f80 	st	0(r6), r7

0000d084 <RSG_tractar>:
    d084:	f2ac 	rds	r1, s2
    d086:	540f 	movi	r2, 15
    d088:	1642 	cmplt	r3, r1, r2
    d08a:	6603 	bz	r3, 8
    d08c:	5aa6 	movi	r5, -90
    d08e:	5bd0 	movhi	r5, -48
    d090:	a143 	jmp	r5

0000d092 <__int>:
    d092:	f228 	getiid	r1
    d094:	5400 	movi	r2, 0
    d096:	1499 	cmpeq	r2, r2, r1
    d098:	6507 	bnz	r2, 16
    d09a:	5403 	movi	r2, 3
    d09c:	1499 	cmpeq	r2, r2, r1
    d09e:	6510 	bnz	r2, 34
    d0a0:	5cce 	movi	r6, -50
    d0a2:	5dd0 	movhi	r6, -48
    d0a4:	a183 	jmp	r6

0000d0a6 <__exc>:
    d0a6:	ffff 	halt	

0000d0a8 <RSI__interrup_timer>:
    d0a8:	5860 	movi	r4, 96
    d0aa:	5960 	movhi	r4, 96
    d0ac:	3700 	ld	r3, 0(r4)
    d0ae:	26c1 	addi	r3, r3, 1
    d0b0:	4700 	st	0(r4), r3
    d0b2:	7706 	out	6, r3
    d0b4:	564a 	movi	r3, 74
    d0b6:	57d1 	movhi	r3, -47
    d0b8:	a0c3 	jmp	r3
    d0ba:	5cce 	movi	r6, -50
    d0bc:	5dd0 	movhi	r6, -48
    d0be:	a183 	jmp	r6

0000d0c0 <RSI__interrup_keyboard>:
    d0c0:	760f 	in	r3, 15
    d0c2:	5862 	movi	r4, 98
    d0c4:	5960 	movhi	r4, 96
    d0c6:	4700 	st	0(r4), r3
    d0c8:	5cce 	movi	r6, -50
    d0ca:	5dd0 	movhi	r6, -48
    d0cc:	a183 	jmp	r6

0000d0ce <RSG_restaurar>:
    d0ce:	5e24 	movi	r7, 36
    d0d0:	5fd5 	movhi	r7, -43
    d0d2:	3fc0 	ld	r7, 0(r7)
    d0d4:	6f1d 	bnz	r7, 60

0000d0d6 <rest_user1>:
    d0d6:	5e10 	movi	r7, 16
    d0d8:	5fd5 	movhi	r7, -43
    d0da:	3fc0 	ld	r7, 0(r7)
    d0dc:	f3f0 	wrs	s1, r7
    d0de:	5e0e 	movi	r7, 14
    d0e0:	5fd5 	movhi	r7, -43
    d0e2:	3fc0 	ld	r7, 0(r7)
    d0e4:	5c0c 	movi	r6, 12
    d0e6:	5dd5 	movhi	r6, -43
    d0e8:	3d80 	ld	r6, 0(r6)
    d0ea:	5a0a 	movi	r5, 10
    d0ec:	5bd5 	movhi	r5, -43
    d0ee:	3b40 	ld	r5, 0(r5)
    d0f0:	5808 	movi	r4, 8
    d0f2:	59d5 	movhi	r4, -43
    d0f4:	3900 	ld	r4, 0(r4)
    d0f6:	5606 	movi	r3, 6
    d0f8:	57d5 	movhi	r3, -43
    d0fa:	36c0 	ld	r3, 0(r3)
    d0fc:	5404 	movi	r2, 4
    d0fe:	55d5 	movhi	r2, -43
    d100:	3480 	ld	r2, 0(r2)
    d102:	5202 	movi	r1, 2
    d104:	53d5 	movhi	r1, -43
    d106:	3240 	ld	r1, 0(r1)
    d108:	5000 	movi	r0, 0
    d10a:	51d5 	movhi	r0, -43
    d10c:	3000 	ld	r0, 0(r0)
    d10e:	f024 	reti	

0000d110 <rest_user2>:
    d110:	5e22 	movi	r7, 34
    d112:	5fd5 	movhi	r7, -43
    d114:	3fc0 	ld	r7, 0(r7)
    d116:	f3f0 	wrs	s1, r7
    d118:	5e20 	movi	r7, 32
    d11a:	5fd5 	movhi	r7, -43
    d11c:	3fc0 	ld	r7, 0(r7)
    d11e:	5c1e 	movi	r6, 30
    d120:	5dd5 	movhi	r6, -43
    d122:	3d80 	ld	r6, 0(r6)
    d124:	5a1c 	movi	r5, 28
    d126:	5bd5 	movhi	r5, -43
    d128:	3b40 	ld	r5, 0(r5)
    d12a:	581a 	movi	r4, 26
    d12c:	59d5 	movhi	r4, -43
    d12e:	3900 	ld	r4, 0(r4)
    d130:	5618 	movi	r3, 24
    d132:	57d5 	movhi	r3, -43
    d134:	36c0 	ld	r3, 0(r3)
    d136:	5416 	movi	r2, 22
    d138:	55d5 	movhi	r2, -43
    d13a:	3480 	ld	r2, 0(r2)
    d13c:	5214 	movi	r1, 20
    d13e:	53d5 	movhi	r1, -43
    d140:	3240 	ld	r1, 0(r1)
    d142:	5012 	movi	r0, 18
    d144:	51d5 	movhi	r0, -43
    d146:	3000 	ld	r0, 0(r0)
    d148:	f024 	reti	

0000d14a <contextSwitch>:
    d14a:	f9f0 	wrs	s4, r7
    d14c:	5e24 	movi	r7, 36
    d14e:	5fd5 	movhi	r7, -43
    d150:	3fc0 	ld	r7, 0(r7)
    d152:	6f21 	bnz	r7, 68

0000d154 <curr_user1>:
    d154:	5c01 	movi	r6, 1
    d156:	5e24 	movi	r7, 36
    d158:	5fd5 	movhi	r7, -43
    d15a:	4dc0 	st	0(r7), r6
    d15c:	5e22 	movi	r7, 34
    d15e:	5fd5 	movhi	r7, -43
    d160:	3fc0 	ld	r7, 0(r7)
    d162:	f3f0 	wrs	s1, r7
    d164:	5e20 	movi	r7, 32
    d166:	5fd5 	movhi	r7, -43
    d168:	3fc0 	ld	r7, 0(r7)
    d16a:	5c1e 	movi	r6, 30
    d16c:	5dd5 	movhi	r6, -43
    d16e:	3d80 	ld	r6, 0(r6)
    d170:	5a1c 	movi	r5, 28
    d172:	5bd5 	movhi	r5, -43
    d174:	3b40 	ld	r5, 0(r5)
    d176:	581a 	movi	r4, 26
    d178:	59d5 	movhi	r4, -43
    d17a:	3900 	ld	r4, 0(r4)
    d17c:	5618 	movi	r3, 24
    d17e:	57d5 	movhi	r3, -43
    d180:	36c0 	ld	r3, 0(r3)
    d182:	5416 	movi	r2, 22
    d184:	55d5 	movhi	r2, -43
    d186:	3480 	ld	r2, 0(r2)
    d188:	5214 	movi	r1, 20
    d18a:	53d5 	movhi	r1, -43
    d18c:	3240 	ld	r1, 0(r1)
    d18e:	5012 	movi	r0, 18
    d190:	51d5 	movhi	r0, -43
    d192:	3000 	ld	r0, 0(r0)
    d194:	f024 	reti	

0000d196 <curr_user2>:
    d196:	5c00 	movi	r6, 0
    d198:	5e24 	movi	r7, 36
    d19a:	5fd5 	movhi	r7, -43
    d19c:	4dc0 	st	0(r7), r6
    d19e:	5e10 	movi	r7, 16
    d1a0:	5fd5 	movhi	r7, -43
    d1a2:	3fc0 	ld	r7, 0(r7)
    d1a4:	f3f0 	wrs	s1, r7
    d1a6:	5e0e 	movi	r7, 14
    d1a8:	5fd5 	movhi	r7, -43
    d1aa:	3fc0 	ld	r7, 0(r7)
    d1ac:	5c0c 	movi	r6, 12
    d1ae:	5dd5 	movhi	r6, -43
    d1b0:	3d80 	ld	r6, 0(r6)
    d1b2:	5a0a 	movi	r5, 10
    d1b4:	5bd5 	movhi	r5, -43
    d1b6:	3b40 	ld	r5, 0(r5)
    d1b8:	5808 	movi	r4, 8
    d1ba:	59d5 	movhi	r4, -43
    d1bc:	3900 	ld	r4, 0(r4)
    d1be:	5606 	movi	r3, 6
    d1c0:	57d5 	movhi	r3, -43
    d1c2:	36c0 	ld	r3, 0(r3)
    d1c4:	5404 	movi	r2, 4
    d1c6:	55d5 	movhi	r2, -43
    d1c8:	3480 	ld	r2, 0(r2)
    d1ca:	5202 	movi	r1, 2
    d1cc:	53d5 	movhi	r1, -43
    d1ce:	3240 	ld	r1, 0(r1)
    d1d0:	5000 	movi	r0, 0
    d1d2:	51d5 	movhi	r0, -43
    d1d4:	3000 	ld	r0, 0(r0)
    d1d6:	f024 	reti	
